; Function Attrs: nounwind uwtable
define internal fastcc nonnull ptr @executeQuery(ptr noundef nonnull %0, ptr noundef %1) unnamed_addr #4 {
  tail call void (i32, i32, ptr, ...) @pg_log_generic(i32 noundef 2, i32 noundef 0, ptr noundef nonnull @.str.187, ptr noundef %1) #15
  %3 = tail call ptr @PQexec(ptr noundef nonnull %0, ptr noundef %1) #15
  %.not = icmp eq ptr %3, null
  br i1 %.not, label %6, label %4

4:                                                ; preds = %2
  %5 = tail call i32 @PQresultStatus(ptr noundef nonnull %3) #15
  %.not9 = icmp eq i32 %5, 2
  br i1 %.not9, label %8, label %6

6:                                                ; preds = %4, %2
  %7 = tail call ptr @PQerrorMessage(ptr noundef nonnull %0) #15
  tail call void (i32, i32, ptr, ...) @pg_log_generic(i32 noundef 4, i32 noundef 0, ptr noundef nonnull @.str.188, ptr noundef %7) #15
  tail call void (i32, i32, ptr, ...) @pg_log_generic(i32 noundef 4, i32 noundef 1, ptr noundef nonnull @.str.189, ptr noundef %1) #15
  tail call void @PQfinish(ptr noundef nonnull %0) #15
  tail call void @exit(i32 noundef 1) #18
  unreachable

8:                                                ; preds = %4
  ret ptr %3
}